target datalayout = "e-m:e-p270:32:32-p271:32:32-p272:64:64-i64:64-i128:128-f80:128-n8:16:32:64-S128"
target triple = "x86_64-pc-linux-gnu"

%struct.AVProbeData = type { ptr, ptr, i32, ptr }
%struct.AVFormatContext = type { ptr, ptr, ptr, ptr, ptr, i32, i32, ptr, i32, ptr, i32, ptr, ptr, i64, i64, i64, i32, i32, i32, i64, i64, ptr, i32, i32, ptr, i32, i32, i32, i32, ptr, i64, i32, i32, %struct.AVIOInterruptCB, i32, i32, i32, i32, i64, i32, i32, i32, i32, i32, i32, i32, i32, i32, i32, i32, i32, i64, i32, i32, i32, i32, i32, ptr, ptr, ptr, ptr, i32, ptr, ptr, ptr, ptr, i32, ptr, ptr, i64, ptr, ptr, ptr, i64 }
%struct.AVIOInterruptCB = type { ptr, ptr }
%struct.AVStream = type { ptr, i32, i32, ptr, ptr, %struct.AVRational, i64, i64, i64, i32, i32, %struct.AVRational, ptr, %struct.AVRational, %struct.AVPacket, i32, %struct.AVRational, i32 }
%struct.AVPacket = type { ptr, i64, i64, ptr, i32, i32, i32, ptr, i32, i64, i64, ptr, ptr, %struct.AVRational }
%struct.AVRational = type { i32, i32 }
%struct.AVCodecParameters = type { i32, i32, i32, ptr, i32, ptr, i32, i32, i64, i32, i32, i32, i32, i32, i32, %struct.AVRational, %struct.AVRational, i32, i32, i32, i32, i32, i32, i32, %struct.AVChannelLayout, i32, i32, i32, i32, i32, i32 }
%struct.AVChannelLayout = type { i32, i32, %union.anon, ptr }
%union.anon = type { i64 }

@.str = private unnamed_addr constant [4 x i8] c"pvf\00", align 1
@.str.1 = private unnamed_addr constant [28 x i8] c"PVF (Portable Voice Format)\00", align 1
@ff_pvf_demuxer = constant { { ptr, ptr, i32, [4 x i8], ptr, ptr, ptr, ptr }, i32, i32, i32, [4 x i8], ptr, ptr, ptr, ptr, ptr, ptr, ptr, ptr, ptr, ptr } { { ptr, ptr, i32, [4 x i8], ptr, ptr, ptr, ptr } { ptr @.str, ptr @.str.1, i32 256, [4 x i8] zeroinitializer, ptr @.str, ptr null, ptr null, ptr null }, i32 0, i32 0, i32 0, [4 x i8] zeroinitializer, ptr @pvf_probe, ptr @pvf_read_header, ptr @ff_pcm_read_packet, ptr null, ptr @ff_pcm_read_seek, ptr null, ptr null, ptr null, ptr null, ptr null }, align 8
@.str.2 = private unnamed_addr constant [6 x i8] c"PVF1\0A\00", align 1
@.str.3 = private unnamed_addr constant [9 x i8] c"%d %d %d\00", align 1

; Function Attrs: nounwind uwtable
define internal i32 @pvf_probe(ptr noundef %0) #0 {
  %2 = alloca i32, align 4
  %3 = alloca ptr, align 8
  store ptr %0, ptr %3, align 8, !tbaa !4
  %4 = load ptr, ptr %3, align 8, !tbaa !4
  %5 = getelementptr inbounds nuw %struct.AVProbeData, ptr %4, i32 0, i32 1
  %6 = load ptr, ptr %5, align 8, !tbaa !9
  %7 = call i32 @memcmp(ptr noundef %6, ptr noundef @.str.2, i64 noundef 5) #5
  %8 = icmp ne i32 %7, 0
  br i1 %8, label %10, label %9

9:                                                ; preds = %1
  store i32 100, ptr %2, align 4
  br label %11

10:                                               ; preds = %1
  store i32 0, ptr %2, align 4
  br label %11

11:                                               ; preds = %10, %9
  %12 = load i32, ptr %2, align 4
  ret i32 %12
}

; Function Attrs: nounwind uwtable
define internal i32 @pvf_read_header(ptr noundef %0) #0 {
  %2 = alloca i32, align 4
  %3 = alloca ptr, align 8
  %4 = alloca [32 x i8], align 16
  %5 = alloca ptr, align 8
  %6 = alloca i32, align 4
  %7 = alloca i32, align 4
  %8 = alloca i32, align 4
  %9 = alloca i32, align 4
  store ptr %0, ptr %3, align 8, !tbaa !13
  call void @llvm.lifetime.start.p0(i64 32, ptr %4) #6
  call void @llvm.lifetime.start.p0(i64 8, ptr %5) #6
  call void @llvm.lifetime.start.p0(i64 4, ptr %6) #6
  call void @llvm.lifetime.start.p0(i64 4, ptr %7) #6
  call void @llvm.lifetime.start.p0(i64 4, ptr %8) #6
  %10 = load ptr, ptr %3, align 8, !tbaa !13
  %11 = getelementptr inbounds nuw %struct.AVFormatContext, ptr %10, i32 0, i32 4
  %12 = load ptr, ptr %11, align 8, !tbaa !15
  %13 = call i64 @avio_skip(ptr noundef %12, i64 noundef 5)
  %14 = load ptr, ptr %3, align 8, !tbaa !13
  %15 = getelementptr inbounds nuw %struct.AVFormatContext, ptr %14, i32 0, i32 4
  %16 = load ptr, ptr %15, align 8, !tbaa !15
  %17 = getelementptr inbounds [32 x i8], ptr %4, i64 0, i64 0
  %18 = call i32 @ff_get_line(ptr noundef %16, ptr noundef %17, i32 noundef 32)
  %19 = getelementptr inbounds [32 x i8], ptr %4, i64 0, i64 0
  %20 = call i32 (ptr, ptr, ...) @__isoc99_sscanf(ptr noundef %19, ptr noundef @.str.3, ptr noundef %7, ptr noundef %8, ptr noundef %6) #6
  %21 = icmp ne i32 %20, 3
  br i1 %21, label %22, label %23

22:                                               ; preds = %1
  store i32 -1094995529, ptr %2, align 4
  store i32 1, ptr %9, align 4
  br label %91

23:                                               ; preds = %1
  %24 = load i32, ptr %7, align 4, !tbaa !30
  %25 = icmp sle i32 %24, 0
  br i1 %25, label %38, label %26

26:                                               ; preds = %23
  %27 = load i32, ptr %7, align 4, !tbaa !30
  %28 = icmp ugt i32 %27, 512
  br i1 %28, label %38, label %29

29:                                               ; preds = %26
  %30 = load i32, ptr %6, align 4, !tbaa !30
  %31 = icmp sle i32 %30, 0
  br i1 %31, label %38, label %32

32:                                               ; preds = %29
  %33 = load i32, ptr %6, align 4, !tbaa !30
  %34 = icmp ugt i32 %33, 4194303
  br i1 %34, label %38, label %35

35:                                               ; preds = %32
  %36 = load i32, ptr %8, align 4, !tbaa !30
  %37 = icmp sle i32 %36, 0
  br i1 %37, label %38, label %39

38:                                               ; preds = %35, %32, %29, %26, %23
  store i32 -1094995529, ptr %2, align 4
  store i32 1, ptr %9, align 4
  br label %91

39:                                               ; preds = %35
  %40 = load ptr, ptr %3, align 8, !tbaa !13
  %41 = call ptr @avformat_new_stream(ptr noundef %40, ptr noundef null)
  store ptr %41, ptr %5, align 8, !tbaa !31
  %42 = load ptr, ptr %5, align 8, !tbaa !31
  %43 = icmp ne ptr %42, null
  br i1 %43, label %45, label %44

44:                                               ; preds = %39
  store i32 -12, ptr %2, align 4
  store i32 1, ptr %9, align 4
  br label %91

45:                                               ; preds = %39
  %46 = load ptr, ptr %5, align 8, !tbaa !31
  %47 = getelementptr inbounds nuw %struct.AVStream, ptr %46, i32 0, i32 3
  %48 = load ptr, ptr %47, align 8, !tbaa !33
  %49 = getelementptr inbounds nuw %struct.AVCodecParameters, ptr %48, i32 0, i32 0
  store i32 1, ptr %49, align 8, !tbaa !40
  %50 = load i32, ptr %7, align 4, !tbaa !30
  %51 = load ptr, ptr %5, align 8, !tbaa !31
  %52 = getelementptr inbounds nuw %struct.AVStream, ptr %51, i32 0, i32 3
  %53 = load ptr, ptr %52, align 8, !tbaa !33
  %54 = getelementptr inbounds nuw %struct.AVCodecParameters, ptr %53, i32 0, i32 24
  %55 = getelementptr inbounds nuw %struct.AVChannelLayout, ptr %54, i32 0, i32 1
  store i32 %50, ptr %55, align 4, !tbaa !43
  %56 = load i32, ptr %8, align 4, !tbaa !30
  %57 = load ptr, ptr %5, align 8, !tbaa !31
  %58 = getelementptr inbounds nuw %struct.AVStream, ptr %57, i32 0, i32 3
  %59 = load ptr, ptr %58, align 8, !tbaa !33
  %60 = getelementptr inbounds nuw %struct.AVCodecParameters, ptr %59, i32 0, i32 25
  store i32 %56, ptr %60, align 8, !tbaa !44
  %61 = load i32, ptr %6, align 4, !tbaa !30
  %62 = call i32 @ff_get_pcm_codec_id(i32 noundef %61, i32 noundef 0, i32 noundef 1, i32 noundef 65535)
  %63 = load ptr, ptr %5, align 8, !tbaa !31
  %64 = getelementptr inbounds nuw %struct.AVStream, ptr %63, i32 0, i32 3
  %65 = load ptr, ptr %64, align 8, !tbaa !33
  %66 = getelementptr inbounds nuw %struct.AVCodecParameters, ptr %65, i32 0, i32 1
  store i32 %62, ptr %66, align 4, !tbaa !45
  %67 = load i32, ptr %6, align 4, !tbaa !30
  %68 = load ptr, ptr %5, align 8, !tbaa !31
  %69 = getelementptr inbounds nuw %struct.AVStream, ptr %68, i32 0, i32 3
  %70 = load ptr, ptr %69, align 8, !tbaa !33
  %71 = getelementptr inbounds nuw %struct.AVCodecParameters, ptr %70, i32 0, i32 9
  store i32 %67, ptr %71, align 8, !tbaa !46
  %72 = load i32, ptr %6, align 4, !tbaa !30
  %73 = load ptr, ptr %5, align 8, !tbaa !31
  %74 = getelementptr inbounds nuw %struct.AVStream, ptr %73, i32 0, i32 3
  %75 = load ptr, ptr %74, align 8, !tbaa !33
  %76 = getelementptr inbounds nuw %struct.AVCodecParameters, ptr %75, i32 0, i32 24
  %77 = getelementptr inbounds nuw %struct.AVChannelLayout, ptr %76, i32 0, i32 1
  %78 = load i32, ptr %77, align 4, !tbaa !43
  %79 = mul nsw i32 %72, %78
  %80 = sdiv i32 %79, 8
  %81 = load ptr, ptr %5, align 8, !tbaa !31
  %82 = getelementptr inbounds nuw %struct.AVStream, ptr %81, i32 0, i32 3
  %83 = load ptr, ptr %82, align 8, !tbaa !33
  %84 = getelementptr inbounds nuw %struct.AVCodecParameters, ptr %83, i32 0, i32 26
  store i32 %80, ptr %84, align 4, !tbaa !47
  %85 = load ptr, ptr %5, align 8, !tbaa !31
  %86 = load ptr, ptr %5, align 8, !tbaa !31
  %87 = getelementptr inbounds nuw %struct.AVStream, ptr %86, i32 0, i32 3
  %88 = load ptr, ptr %87, align 8, !tbaa !33
  %89 = getelementptr inbounds nuw %struct.AVCodecParameters, ptr %88, i32 0, i32 25
  %90 = load i32, ptr %89, align 8, !tbaa !44
  call void @avpriv_set_pts_info(ptr noundef %85, i32 noundef 64, i32 noundef 1, i32 noundef %90)
  store i32 0, ptr %2, align 4
  store i32 1, ptr %9, align 4
  br label %91

91:                                               ; preds = %45, %44, %38, %22
  call void @llvm.lifetime.end.p0(i64 4, ptr %8) #6
  call void @llvm.lifetime.end.p0(i64 4, ptr %7) #6
  call void @llvm.lifetime.end.p0(i64 4, ptr %6) #6
  call void @llvm.lifetime.end.p0(i64 8, ptr %5) #6
  call void @llvm.lifetime.end.p0(i64 32, ptr %4) #6
  %92 = load i32, ptr %2, align 4
  ret i32 %92
}

declare i32 @ff_pcm_read_packet(ptr noundef, ptr noundef) #1

declare i32 @ff_pcm_read_seek(ptr noundef, i32 noundef, i64 noundef, i32 noundef) #1

; Function Attrs: nounwind willreturn memory(read)
declare i32 @memcmp(ptr noundef, ptr noundef, i64 noundef) #2

; Function Attrs: nocallback nofree nosync nounwind willreturn memory(argmem: readwrite)
declare void @llvm.lifetime.start.p0(i64 immarg, ptr captures(none)) #3

declare i64 @avio_skip(ptr noundef, i64 noundef) #1

declare i32 @ff_get_line(ptr noundef, ptr noundef, i32 noundef) #1

; Function Attrs: nounwind
declare i32 @__isoc99_sscanf(ptr noundef, ptr noundef, ...) #4

declare ptr @avformat_new_stream(ptr noundef, ptr noundef) #1

declare i32 @ff_get_pcm_codec_id(i32 noundef, i32 noundef, i32 noundef, i32 noundef) #1

declare void @avpriv_set_pts_info(ptr noundef, i32 noundef, i32 noundef, i32 noundef) #1

; Function Attrs: nocallback nofree nosync nounwind willreturn memory(argmem: readwrite)
declare void @llvm.lifetime.end.p0(i64 immarg, ptr captures(none)) #3


!llvm.module.flags = !{!0, !1, !2, !3}

!0 = !{i32 1, !"wchar_size", i32 4}
!1 = !{i32 8, !"PIC Level", i32 2}
!2 = !{i32 7, !"uwtable", i32 2}
!3 = !{i32 1, !"override-stack-alignment", i32 16}
!4 = !{!5, !5, i64 0}
!5 = !{!"p1 _ZTS11AVProbeData", !6, i64 0}
!6 = !{!"any pointer", !7, i64 0}
!7 = !{!"omnipotent char", !8, i64 0}
!8 = !{!"Simple C/C++ TBAA"}
!9 = !{!10, !11, i64 8}
!10 = !{!"AVProbeData", !11, i64 0, !11, i64 8, !12, i64 16, !11, i64 24}
!11 = !{!"p1 omnipotent char", !6, i64 0}
!12 = !{!"int", !7, i64 0}
!13 = !{!14, !14, i64 0}
!14 = !{!"p1 _ZTS15AVFormatContext", !6, i64 0}
!15 = !{!16, !20, i64 32}
!16 = !{!"AVFormatContext", !17, i64 0, !18, i64 8, !19, i64 16, !6, i64 24, !20, i64 32, !12, i64 40, !12, i64 44, !21, i64 48, !12, i64 56, !23, i64 64, !12, i64 72, !24, i64 80, !11, i64 88, !25, i64 96, !25, i64 104, !25, i64 112, !12, i64 120, !12, i64 124, !12, i64 128, !25, i64 136, !25, i64 144, !11, i64 152, !12, i64 160, !12, i64 164, !26, i64 168, !12, i64 176, !12, i64 180, !12, i64 184, !12, i64 188, !27, i64 192, !25, i64 200, !12, i64 208, !12, i64 212, !28, i64 216, !12, i64 232, !12, i64 236, !12, i64 240, !12, i64 244, !25, i64 248, !12, i64 256, !12, i64 260, !12, i64 264, !12, i64 268, !12, i64 272, !12, i64 276, !12, i64 280, !12, i64 284, !12, i64 288, !12, i64 292, !12, i64 296, !12, i64 300, !25, i64 304, !12, i64 312, !12, i64 316, !12, i64 320, !12, i64 324, !12, i64 328, !11, i64 336, !11, i64 344, !11, i64 352, !11, i64 360, !12, i64 368, !29, i64 376, !29, i64 384, !29, i64 392, !29, i64 400, !12, i64 408, !6, i64 416, !6, i64 424, !25, i64 432, !11, i64 440, !6, i64 448, !6, i64 456, !25, i64 464}
!17 = !{!"p1 _ZTS7AVClass", !6, i64 0}
!18 = !{!"p1 _ZTS13AVInputFormat", !6, i64 0}
!19 = !{!"p1 _ZTS14AVOutputFormat", !6, i64 0}
!20 = !{!"p1 _ZTS11AVIOContext", !6, i64 0}
!21 = !{!"p2 _ZTS8AVStream", !22, i64 0}
!22 = !{!"any p2 pointer", !6, i64 0}
!23 = !{!"p2 _ZTS13AVStreamGroup", !22, i64 0}
!24 = !{!"p2 _ZTS9AVChapter", !22, i64 0}
!25 = !{!"long", !7, i64 0}
!26 = !{!"p2 _ZTS9AVProgram", !22, i64 0}
!27 = !{!"p1 _ZTS12AVDictionary", !6, i64 0}
!28 = !{!"AVIOInterruptCB", !6, i64 0, !6, i64 8}
!29 = !{!"p1 _ZTS7AVCodec", !6, i64 0}
!30 = !{!12, !12, i64 0}
!31 = !{!32, !32, i64 0}
!32 = !{!"p1 _ZTS8AVStream", !6, i64 0}
!33 = !{!34, !35, i64 16}
!34 = !{!"AVStream", !17, i64 0, !12, i64 8, !12, i64 12, !35, i64 16, !6, i64 24, !36, i64 32, !25, i64 40, !25, i64 48, !25, i64 56, !12, i64 64, !12, i64 68, !36, i64 72, !27, i64 80, !36, i64 88, !37, i64 96, !12, i64 200, !36, i64 204, !12, i64 212}
!35 = !{!"p1 _ZTS17AVCodecParameters", !6, i64 0}
!36 = !{!"AVRational", !12, i64 0, !12, i64 4}
!37 = !{!"AVPacket", !38, i64 0, !25, i64 8, !25, i64 16, !11, i64 24, !12, i64 32, !12, i64 36, !12, i64 40, !39, i64 48, !12, i64 56, !25, i64 64, !25, i64 72, !6, i64 80, !38, i64 88, !36, i64 96}
!38 = !{!"p1 _ZTS11AVBufferRef", !6, i64 0}
!39 = !{!"p1 _ZTS16AVPacketSideData", !6, i64 0}
!40 = !{!41, !12, i64 0}
!41 = !{!"AVCodecParameters", !12, i64 0, !12, i64 4, !12, i64 8, !11, i64 16, !12, i64 24, !39, i64 32, !12, i64 40, !12, i64 44, !25, i64 48, !12, i64 56, !12, i64 60, !12, i64 64, !12, i64 68, !12, i64 72, !12, i64 76, !36, i64 80, !36, i64 88, !12, i64 96, !12, i64 100, !12, i64 104, !12, i64 108, !12, i64 112, !12, i64 116, !12, i64 120, !42, i64 128, !12, i64 152, !12, i64 156, !12, i64 160, !12, i64 164, !12, i64 168, !12, i64 172}
!42 = !{!"AVChannelLayout", !12, i64 0, !12, i64 4, !7, i64 8, !6, i64 16}
!43 = !{!41, !12, i64 132}
!44 = !{!41, !12, i64 152}
!45 = !{!41, !12, i64 4}
!46 = !{!41, !12, i64 56}
!47 = !{!41, !12, i64 156}
