; ModuleID = 'bench/ffmpeg/original/pvfdec.ll'
source_filename = "bench/ffmpeg/original/pvfdec.ll"
target datalayout = "e-m:e-p270:32:32-p271:32:32-p272:64:64-i64:64-i128:128-f80:128-n8:16:32:64-S128"
target triple = "x86_64-pc-linux-gnu"

@.str = private unnamed_addr constant [4 x i8] c"pvf\00", align 1
@.str.1 = private unnamed_addr constant [28 x i8] c"PVF (Portable Voice Format)\00", align 1
@ff_pvf_demuxer = local_unnamed_addr constant { { ptr, ptr, i32, [4 x i8], ptr, ptr, ptr, ptr }, i32, i32, i32, [4 x i8], ptr, ptr, ptr, ptr, ptr, ptr, ptr, ptr, ptr, ptr } { { ptr, ptr, i32, [4 x i8], ptr, ptr, ptr, ptr } { ptr @.str, ptr @.str.1, i32 256, [4 x i8] zeroinitializer, ptr @.str, ptr null, ptr null, ptr null }, i32 0, i32 0, i32 0, [4 x i8] zeroinitializer, ptr @pvf_probe, ptr @pvf_read_header, ptr @ff_pcm_read_packet, ptr null, ptr @ff_pcm_read_seek, ptr null, ptr null, ptr null, ptr null, ptr null }, align 8
@.str.2 = private unnamed_addr constant [6 x i8] c"PVF1\0A\00", align 1
@.str.3 = private unnamed_addr constant [9 x i8] c"%d %d %d\00", align 1

; Function Attrs: mustprogress nofree norecurse nounwind willreturn memory(read, inaccessiblemem: none) uwtable
define internal range(i32 0, 101) i32 @pvf_probe(ptr noundef readonly captures(none) %0) #0 {
  %2 = getelementptr inbounds nuw i8, ptr %0, i64 8
  %3 = load ptr, ptr %2, align 8, !tbaa !4
  %bcmp = tail call i32 @bcmp(ptr noundef nonnull dereferenceable(5) %3, ptr noundef nonnull dereferenceable(5) @.str.2, i64 5)
  %.not = icmp eq i32 %bcmp, 0
  %. = select i1 %.not, i32 100, i32 0
  ret i32 %.
}

; Function Attrs: nounwind uwtable
define internal range(i32 -1094995529, 1) i32 @pvf_read_header(ptr noundef %0) #1 {
  %2 = alloca [32 x i8], align 16
  %3 = alloca i32, align 4
  %4 = alloca i32, align 4
  %5 = alloca i32, align 4
  call void @llvm.lifetime.start.p0(i64 32, ptr nonnull %2) #6
  call void @llvm.lifetime.start.p0(i64 4, ptr nonnull %3) #6
  call void @llvm.lifetime.start.p0(i64 4, ptr nonnull %4) #6
  call void @llvm.lifetime.start.p0(i64 4, ptr nonnull %5) #6
  %6 = getelementptr inbounds nuw i8, ptr %0, i64 32
  %7 = load ptr, ptr %6, align 8, !tbaa !11
  %8 = tail call i64 @avio_skip(ptr noundef %7, i64 noundef 5) #6
  %9 = load ptr, ptr %6, align 8, !tbaa !11
  %10 = call i32 @ff_get_line(ptr noundef %9, ptr noundef nonnull %2, i32 noundef 32) #6
  %11 = call i32 (ptr, ptr, ...) @__isoc99_sscanf(ptr noundef nonnull %2, ptr noundef nonnull @.str.3, ptr noundef nonnull %4, ptr noundef nonnull %5, ptr noundef nonnull %3) #6
  %.not = icmp eq i32 %11, 3
  br i1 %.not, label %12, label %42

12:                                               ; preds = %1
  %13 = load i32, ptr %4, align 4, !tbaa !26
  %14 = add i32 %13, -513
  %or.cond = icmp ult i32 %14, -512
  %15 = load i32, ptr %3, align 4
  %16 = add i32 %15, -4194304
  %17 = icmp ult i32 %16, -4194303
  %or.cond5 = select i1 %or.cond, i1 true, i1 %17
  %18 = load i32, ptr %5, align 4
  %19 = icmp slt i32 %18, 1
  %or.cond7 = select i1 %or.cond5, i1 true, i1 %19
  br i1 %or.cond7, label %42, label %20

20:                                               ; preds = %12
  %21 = call ptr @avformat_new_stream(ptr noundef nonnull %0, ptr noundef null) #6
  %.not21 = icmp eq ptr %21, null
  br i1 %.not21, label %42, label %22

22:                                               ; preds = %20
  %23 = getelementptr inbounds nuw i8, ptr %21, i64 16
  %24 = load ptr, ptr %23, align 8, !tbaa !27
  store i32 1, ptr %24, align 8, !tbaa !34
  %25 = load i32, ptr %4, align 4, !tbaa !26
  %26 = getelementptr inbounds nuw i8, ptr %24, i64 132
  store i32 %25, ptr %26, align 4, !tbaa !37
  %27 = load i32, ptr %5, align 4, !tbaa !26
  %28 = getelementptr inbounds nuw i8, ptr %24, i64 152
  store i32 %27, ptr %28, align 8, !tbaa !38
  %29 = load i32, ptr %3, align 4, !tbaa !26
  %30 = call i32 @ff_get_pcm_codec_id(i32 noundef %29, i32 noundef 0, i32 noundef 1, i32 noundef 65535) #6
  %31 = load ptr, ptr %23, align 8, !tbaa !27
  %32 = getelementptr inbounds nuw i8, ptr %31, i64 4
  store i32 %30, ptr %32, align 4, !tbaa !39
  %33 = load i32, ptr %3, align 4, !tbaa !26
  %34 = getelementptr inbounds nuw i8, ptr %31, i64 56
  store i32 %33, ptr %34, align 8, !tbaa !40
  %35 = getelementptr inbounds nuw i8, ptr %31, i64 132
  %36 = load i32, ptr %35, align 4, !tbaa !37
  %37 = mul nsw i32 %36, %33
  %38 = sdiv i32 %37, 8
  %39 = getelementptr inbounds nuw i8, ptr %31, i64 156
  store i32 %38, ptr %39, align 4, !tbaa !41
  %40 = getelementptr inbounds nuw i8, ptr %31, i64 152
  %41 = load i32, ptr %40, align 8, !tbaa !38
  call void @avpriv_set_pts_info(ptr noundef nonnull %21, i32 noundef 64, i32 noundef 1, i32 noundef %41) #6
  br label %42

42:                                               ; preds = %20, %12, %1, %22
  %.0 = phi i32 [ 0, %22 ], [ -1094995529, %1 ], [ -1094995529, %12 ], [ -12, %20 ]
  call void @llvm.lifetime.end.p0(i64 4, ptr nonnull %5) #6
  call void @llvm.lifetime.end.p0(i64 4, ptr nonnull %4) #6
  call void @llvm.lifetime.end.p0(i64 4, ptr nonnull %3) #6
  call void @llvm.lifetime.end.p0(i64 32, ptr nonnull %2) #6
  ret i32 %.0
}

declare i32 @ff_pcm_read_packet(ptr noundef, ptr noundef) #2

declare i32 @ff_pcm_read_seek(ptr noundef, i32 noundef, i64 noundef, i32 noundef) #2

; Function Attrs: mustprogress nocallback nofree nosync nounwind willreturn memory(argmem: readwrite)
declare void @llvm.lifetime.start.p0(i64 immarg, ptr captures(none)) #3

declare i64 @avio_skip(ptr noundef, i64 noundef) local_unnamed_addr #2

declare i32 @ff_get_line(ptr noundef, ptr noundef, i32 noundef) local_unnamed_addr #2

; Function Attrs: nofree nounwind
declare noundef i32 @__isoc99_sscanf(ptr noundef readonly captures(none), ptr noundef readonly captures(none), ...) local_unnamed_addr #4

declare ptr @avformat_new_stream(ptr noundef, ptr noundef) local_unnamed_addr #2

declare i32 @ff_get_pcm_codec_id(i32 noundef, i32 noundef, i32 noundef, i32 noundef) local_unnamed_addr #2

declare void @avpriv_set_pts_info(ptr noundef, i32 noundef, i32 noundef, i32 noundef) local_unnamed_addr #2

; Function Attrs: mustprogress nocallback nofree nosync nounwind willreturn memory(argmem: readwrite)
declare void @llvm.lifetime.end.p0(i64 immarg, ptr captures(none)) #3

; Function Attrs: nocallback nofree nounwind willreturn memory(argmem: read)
declare i32 @bcmp(ptr captures(none), ptr captures(none), i64) local_unnamed_addr #5


!llvm.module.flags = !{!0, !1, !2, !3}

!0 = !{i32 1, !"wchar_size", i32 4}
!1 = !{i32 8, !"PIC Level", i32 2}
!2 = !{i32 7, !"uwtable", i32 2}
!3 = !{i32 1, !"override-stack-alignment", i32 16}
!4 = !{!5, !6, i64 8}
!5 = !{!"AVProbeData", !6, i64 0, !6, i64 8, !10, i64 16, !6, i64 24}
!6 = !{!"p1 omnipotent char", !7, i64 0}
!7 = !{!"any pointer", !8, i64 0}
!8 = !{!"omnipotent char", !9, i64 0}
!9 = !{!"Simple C/C++ TBAA"}
!10 = !{!"int", !8, i64 0}
!11 = !{!12, !16, i64 32}
!12 = !{!"AVFormatContext", !13, i64 0, !14, i64 8, !15, i64 16, !7, i64 24, !16, i64 32, !10, i64 40, !10, i64 44, !17, i64 48, !10, i64 56, !19, i64 64, !10, i64 72, !20, i64 80, !6, i64 88, !21, i64 96, !21, i64 104, !21, i64 112, !10, i64 120, !10, i64 124, !10, i64 128, !21, i64 136, !21, i64 144, !6, i64 152, !10, i64 160, !10, i64 164, !22, i64 168, !10, i64 176, !10, i64 180, !10, i64 184, !10, i64 188, !23, i64 192, !21, i64 200, !10, i64 208, !10, i64 212, !24, i64 216, !10, i64 232, !10, i64 236, !10, i64 240, !10, i64 244, !21, i64 248, !10, i64 256, !10, i64 260, !10, i64 264, !10, i64 268, !10, i64 272, !10, i64 276, !10, i64 280, !10, i64 284, !10, i64 288, !10, i64 292, !10, i64 296, !10, i64 300, !21, i64 304, !10, i64 312, !10, i64 316, !10, i64 320, !10, i64 324, !10, i64 328, !6, i64 336, !6, i64 344, !6, i64 352, !6, i64 360, !10, i64 368, !25, i64 376, !25, i64 384, !25, i64 392, !25, i64 400, !10, i64 408, !7, i64 416, !7, i64 424, !21, i64 432, !6, i64 440, !7, i64 448, !7, i64 456, !21, i64 464}
!13 = !{!"p1 _ZTS7AVClass", !7, i64 0}
!14 = !{!"p1 _ZTS13AVInputFormat", !7, i64 0}
!15 = !{!"p1 _ZTS14AVOutputFormat", !7, i64 0}
!16 = !{!"p1 _ZTS11AVIOContext", !7, i64 0}
!17 = !{!"p2 _ZTS8AVStream", !18, i64 0}
!18 = !{!"any p2 pointer", !7, i64 0}
!19 = !{!"p2 _ZTS13AVStreamGroup", !18, i64 0}
!20 = !{!"p2 _ZTS9AVChapter", !18, i64 0}
!21 = !{!"long", !8, i64 0}
!22 = !{!"p2 _ZTS9AVProgram", !18, i64 0}
!23 = !{!"p1 _ZTS12AVDictionary", !7, i64 0}
!24 = !{!"AVIOInterruptCB", !7, i64 0, !7, i64 8}
!25 = !{!"p1 _ZTS7AVCodec", !7, i64 0}
!26 = !{!10, !10, i64 0}
!27 = !{!28, !29, i64 16}
!28 = !{!"AVStream", !13, i64 0, !10, i64 8, !10, i64 12, !29, i64 16, !7, i64 24, !30, i64 32, !21, i64 40, !21, i64 48, !21, i64 56, !10, i64 64, !10, i64 68, !30, i64 72, !23, i64 80, !30, i64 88, !31, i64 96, !10, i64 200, !30, i64 204, !10, i64 212}
!29 = !{!"p1 _ZTS17AVCodecParameters", !7, i64 0}
!30 = !{!"AVRational", !10, i64 0, !10, i64 4}
!31 = !{!"AVPacket", !32, i64 0, !21, i64 8, !21, i64 16, !6, i64 24, !10, i64 32, !10, i64 36, !10, i64 40, !33, i64 48, !10, i64 56, !21, i64 64, !21, i64 72, !7, i64 80, !32, i64 88, !30, i64 96}
!32 = !{!"p1 _ZTS11AVBufferRef", !7, i64 0}
!33 = !{!"p1 _ZTS16AVPacketSideData", !7, i64 0}
!34 = !{!35, !10, i64 0}
!35 = !{!"AVCodecParameters", !10, i64 0, !10, i64 4, !10, i64 8, !6, i64 16, !10, i64 24, !33, i64 32, !10, i64 40, !10, i64 44, !21, i64 48, !10, i64 56, !10, i64 60, !10, i64 64, !10, i64 68, !10, i64 72, !10, i64 76, !30, i64 80, !30, i64 88, !10, i64 96, !10, i64 100, !10, i64 104, !10, i64 108, !10, i64 112, !10, i64 116, !10, i64 120, !36, i64 128, !10, i64 152, !10, i64 156, !10, i64 160, !10, i64 164, !10, i64 168, !10, i64 172}
!36 = !{!"AVChannelLayout", !10, i64 0, !10, i64 4, !8, i64 8, !7, i64 16}
!37 = !{!35, !10, i64 132}
!38 = !{!35, !10, i64 152}
!39 = !{!35, !10, i64 4}
!40 = !{!35, !10, i64 56}
!41 = !{!35, !10, i64 156}
